
test_objdump:     file format elf32-littlearm


Disassembly of section .plt:

00000280 <__libc_init@plt-0x14>:
 280:	e52de004 	push	{lr}		; (str lr, [sp, #-4]!)
 284:	e59fe004 	ldr	lr, [pc, #4]	; 290 <__libc_init@plt-0x4>
 288:	e08fe00e 	add	lr, pc, lr
 28c:	e5bef008 	ldr	pc, [lr, #8]!
 290:	00001d5c 	andeq	r1, r0, ip, asr sp

00000294 <__libc_init@plt>:
 294:	e28fc600 	add	ip, pc, #0, 12
 298:	e28cca01 	add	ip, ip, #4096	; 0x1000
 29c:	e5bcfd5c 	ldr	pc, [ip, #3420]!	; 0xd5c

000002a0 <__cxa_atexit@plt>:
 2a0:	e28fc600 	add	ip, pc, #0, 12
 2a4:	e28cca01 	add	ip, ip, #4096	; 0x1000
 2a8:	e5bcfd54 	ldr	pc, [ip, #3412]!	; 0xd54

Disassembly of section .text:

000002ac <main>:
 2ac:	2000      	movs	r0, #0
 2ae:	2361      	movs	r3, #97	; 0x61
 2b0:	7003      	strb	r3, [r0, #0]
 2b2:	4770      	bx	lr

000002b4 <_start>:
 2b4:	e92d4800 	push	{fp, lr}
 2b8:	e28db004 	add	fp, sp, #4
 2bc:	e24dd010 	sub	sp, sp, #16
 2c0:	e59f3050 	ldr	r3, [pc, #80]	; 318 <_start+0x64>
 2c4:	e08f3003 	add	r3, pc, r3
 2c8:	e59f204c 	ldr	r2, [pc, #76]	; 31c <_start+0x68>
 2cc:	e7932002 	ldr	r2, [r3, r2]
 2d0:	e50b2014 	str	r2, [fp, #-20]
 2d4:	e59f2044 	ldr	r2, [pc, #68]	; 320 <_start+0x6c>
 2d8:	e7932002 	ldr	r2, [r3, r2]
 2dc:	e50b2010 	str	r2, [fp, #-16]
 2e0:	e59f203c 	ldr	r2, [pc, #60]	; 324 <_start+0x70>
 2e4:	e7932002 	ldr	r2, [r3, r2]
 2e8:	e50b200c 	str	r2, [fp, #-12]
 2ec:	e1a0200b 	mov	r2, fp
 2f0:	e2822004 	add	r2, r2, #4
 2f4:	e50b2008 	str	r2, [fp, #-8]
 2f8:	e24bc014 	sub	ip, fp, #20
 2fc:	e51b0008 	ldr	r0, [fp, #-8]
 300:	e3a01000 	mov	r1, #0
 304:	e59f201c 	ldr	r2, [pc, #28]	; 328 <_start+0x74>
 308:	e7933002 	ldr	r3, [r3, r2]
 30c:	e1a02003 	mov	r2, r3
 310:	e1a0300c 	mov	r3, ip
 314:	ebffffde 	bl	294 <__libc_init@plt>
 318:	00001d20 	andeq	r1, r0, r0, lsr #26
 31c:	fffffff0 			; <UNDEFINED> instruction: 0xfffffff0
 320:	fffffff4 			; <UNDEFINED> instruction: 0xfffffff4
 324:	fffffff8 			; <UNDEFINED> instruction: 0xfffffff8
 328:	fffffffc 			; <UNDEFINED> instruction: 0xfffffffc

0000032c <__atexit_handler_wrapper>:
 32c:	e92d4800 	push	{fp, lr}
 330:	e28db004 	add	fp, sp, #4
 334:	e24dd008 	sub	sp, sp, #8
 338:	e50b0008 	str	r0, [fp, #-8]
 33c:	e51b3008 	ldr	r3, [fp, #-8]
 340:	e3530000 	cmp	r3, #0
 344:	0a000001 	beq	350 <__atexit_handler_wrapper+0x24>
 348:	e51b3008 	ldr	r3, [fp, #-8]
 34c:	e12fff33 	blx	r3
 350:	e24bd004 	sub	sp, fp, #4
 354:	e8bd8800 	pop	{fp, pc}

00000358 <atexit>:
 358:	e92d4800 	push	{fp, lr}
 35c:	e28db004 	add	fp, sp, #4
 360:	e24dd008 	sub	sp, sp, #8
 364:	e50b0008 	str	r0, [fp, #-8]
 368:	e59f3028 	ldr	r3, [pc, #40]	; 398 <atexit+0x40>
 36c:	e08f3003 	add	r3, pc, r3
 370:	e1a00003 	mov	r0, r3
 374:	e51b1008 	ldr	r1, [fp, #-8]
 378:	e59f301c 	ldr	r3, [pc, #28]	; 39c <atexit+0x44>
 37c:	e08f3003 	add	r3, pc, r3
 380:	e1a02003 	mov	r2, r3
 384:	ebffffc5 	bl	2a0 <__cxa_atexit@plt>
 388:	e1a03000 	mov	r3, r0
 38c:	e1a00003 	mov	r0, r3
 390:	e24bd004 	sub	sp, fp, #4
 394:	e8bd8800 	pop	{fp, pc}
 398:	ffffffb8 			; <UNDEFINED> instruction: 0xffffffb8
 39c:	00001c7c 	andeq	r1, r0, ip, ror ip
